(ioptparse
Values
p0
(dp1
S'selected_nodes'
p2
(lp3
sS'autoflatten'
p4
I00
sS'filetype'
p5
S'kicad_pcb'
p6
sS'ids'
p7
(lp8
S'g7825'
p9
asS'crop'
p10
I00
sS'debug'
p11
I00
sS'openkicad'
p12
I00
sS'openfactory'
p13
I00
sS'threshold'
p14
F10.0
sS'path'
p15
S'/home/jeff/projects/2019/tr20-badge/repos/tr20-badge-hw/r2/tr20-r2-graphics/back-silk/tr20-r2-silk.kicad_pcb'
p16
sS'dpi'
p17
F1200.0
sb.